; Function Attrs: mustprogress uwtable
define void @_ZN9Scheduler13InitHighCardsEv(ptr noundef nonnull align 8 dereferenceable(43416) %0) local_unnamed_addr #3 align 2 personality ptr @__gxx_personality_v0 {
  %2 = getelementptr inbounds nuw i8, ptr %0, i64 43296
  %3 = getelementptr inbounds i8, ptr %0, i64 43304
  %4 = load ptr, ptr %3, align 8
  %5 = load ptr, ptr %2, align 8
  %6 = ptrtoint ptr %4 to i64
  %7 = ptrtoint ptr %5 to i64
  %8 = sub i64 %6, %7
  %9 = ashr exact i64 %8, 2
  %10 = icmp ult i64 %9, 8192
  br i1 %10, label %11, label %13

11:                                               ; preds = %1
  %12 = sub nuw nsw i64 8192, %9
  tail call void @_ZNSt6vectorIiSaIiEE17_M_default_appendEm(ptr noundef nonnull align 8 dereferenceable(24) %2, i64 noundef %12)
  br label %_ZNSt6vectorIiSaIiEE6resizeEm.exit.preheader

13:                                               ; preds = %1
  %.not19 = icmp eq i64 %8, 32768
  br i1 %.not19, label %_ZNSt6vectorIiSaIiEE6resizeEm.exit.preheader, label %14

14:                                               ; preds = %13
  %15 = getelementptr inbounds i8, ptr %5, i64 32768
  %.not.i.i = icmp eq ptr %4, %15
  br i1 %.not.i.i, label %_ZNSt6vectorIiSaIiEE6resizeEm.exit.preheader, label %16

16:                                               ; preds = %14
  store ptr %15, ptr %3, align 8
  br label %_ZNSt6vectorIiSaIiEE6resizeEm.exit.preheader

_ZNSt6vectorIiSaIiEE6resizeEm.exit.preheader:     ; preds = %11, %13, %14, %16
  br label %_ZNSt6vectorIiSaIiEE6resizeEm.exit

_ZNSt6vectorIiSaIiEE6resizeEm.exit:               ; preds = %_ZNSt6vectorIiSaIiEE6resizeEm.exit.preheader, %_ZNSt6vectorIiSaIiEE6resizeEm.exit
  %indvars.iv = phi i64 [ %indvars.iv.next, %_ZNSt6vectorIiSaIiEE6resizeEm.exit ], [ 0, %_ZNSt6vectorIiSaIiEE6resizeEm.exit.preheader ]
  %.not = icmp ult i64 %indvars.iv, 4096
  %spec.select = select i1 %.not, i32 0, i32 13
  %17 = trunc nuw nsw i64 %indvars.iv to i32
  %18 = lshr i32 %17, 8
  %19 = and i32 %18, 8
  %20 = and i32 %18, 4
  %21 = and i32 %18, 2
  %22 = and i32 %18, 1
  %.3 = add nuw nsw i32 %spec.select, %19
  %.1 = add nuw nsw i32 %.3, %20
  %.2 = or disjoint i32 %.1, %21
  %.4 = add nuw nsw i32 %.2, %22
  %23 = load ptr, ptr %2, align 8
  %24 = getelementptr inbounds i32, ptr %23, i64 %indvars.iv
  store i32 %.4, ptr %24, align 4
  %indvars.iv.next = add nuw nsw i64 %indvars.iv, 1
  %exitcond.not = icmp eq i64 %indvars.iv.next, 8192
  br i1 %exitcond.not, label %25, label %_ZNSt6vectorIiSaIiEE6resizeEm.exit, !llvm.loop !4

25:                                               ; preds = %_ZNSt6vectorIiSaIiEE6resizeEm.exit
  ret void
}